(dp1
S'output'
p2
S"<type 'exceptions.AttributeError'> 'Table' object has no attribute 'by'"
p3
sS'layer'
p4
S'/home/kritika/web2py/applications/cookmania/models/db.py'
p5
sS'code'
p6
S"db = DAL('sqlite://storage.sqlite')\n\nfrom gluon.tools import *\nauth = Auth(db)\nauth.define_tables()\ncrud = Crud(db)\n\ndb.define_table('recipe',\n    Field('title','text'),\n    Field('body','text'),\n    Field('created_by','reference auth_user',default=auth.user_id),\n    Field('created_on','datetime',default=request.now),\n    format='%(title)s')\n\ndb.define_table('comments',\n    Field('id','reference recipe'),\n    Field('body', 'text'),\n    Field('created_on', 'datetime', default=request.now),\n    Field('created_by', 'reference auth_user', default=auth.user_id))\n\ndb.define_table('image',\n    Field('id','reference recipe'),\n    Field('file','upload'))\n\ndb.recipe.title.requires=IS_NOT_IN_DB(db,'recipe.title')\ndb.recipe.body.requires=IS_NOT_EMPTY()\ndb.recipe.title.requires=IS_NOT_EMPTY()\ndb.comments.body.requires=IS_NOT_EMPTY()\ndb.recipe.by.writable=db.recipe.by.readable=False\ndb.comments.by.writable=db.comments.by.readable=False\ndb.recipe.on.writable=db.recipe.on.readable=False\ndb.comments.on.writable=db.comments.on.readable=False\ndb.comments.id.writable=db.comments.id.readable=False\n"
p7
sS'snapshot'
p8
(dp9
S'exception'
p10
(dp11
S'__hash__'
p12
S"<method-wrapper '__hash__' of exceptions.AttributeError object>"
p13
sS'__setattr__'
p14
S"<method-wrapper '__setattr__' of exceptions.AttributeError object>"
p15
sS'__reduce_ex__'
p16
S'<built-in method __reduce_ex__ of exceptions.AttributeError object>'
p17
sS'__getslice__'
p18
S"<method-wrapper '__getslice__' of exceptions.AttributeError object>"
p19
sS'__getitem__'
p20
S"<method-wrapper '__getitem__' of exceptions.AttributeError object>"
p21
sS'__setstate__'
p22
S'<built-in method __setstate__ of exceptions.AttributeError object>'
p23
sS'args'
p24
S'("\'Table\' object has no attribute \'by\'",)'
p25
sS'__reduce__'
p26
S'<built-in method __reduce__ of exceptions.AttributeError object>'
p27
sS'__str__'
p28
S"<method-wrapper '__str__' of exceptions.AttributeError object>"
p29
sS'__format__'
p30
S'<built-in method __format__ of exceptions.AttributeError object>'
p31
sS'__getattribute__'
p32
S"<method-wrapper '__getattribute__' of exceptions.AttributeError object>"
p33
sS'__class__'
p34
S"<type 'exceptions.AttributeError'>"
p35
sS'__unicode__'
p36
S'<built-in method __unicode__ of exceptions.AttributeError object>'
p37
sS'__delattr__'
p38
S"<method-wrapper '__delattr__' of exceptions.AttributeError object>"
p39
sS'__subclasshook__'
p40
S'<built-in method __subclasshook__ of type object>'
p41
sS'__repr__'
p42
S"<method-wrapper '__repr__' of exceptions.AttributeError object>"
p43
sS'__dict__'
p44
S'{}'
p45
sS'__sizeof__'
p46
S'<built-in method __sizeof__ of exceptions.AttributeError object>'
p47
sS'__doc__'
p48
S"'Attribute not found.'"
p49
sS'__init__'
p50
S"<method-wrapper '__init__' of exceptions.AttributeError object>"
p51
sS'__new__'
p52
S'<built-in method __new__ of type object>'
p53
ssS'evalue'
p54
S"'Table' object has no attribute 'by'"
p55
sS'request'
p56
cgluon.html
XML_unpickle
p57
(S'sPa\x00\x00<div><table><tr><td style="font-weight:bold;vertical-align:top;">ajax</td><td style="vertical-align:top;">:</td><td><div>False</div></td></tr><tr><td style="font-weight:bold;vertical-align:top;">application</td><td style="vertical-align:top;">:</td><td><div>cookmania</div></td></tr><tr><td style="font-weight:bold;vertical-align:top;">args</td><td style="vertical-align:top;">:</td><td><div><table></table></div></td></tr><tr><td style="font-weight:bold;vertical-align:top;">cid</td><td style="vertical-align:top;">:</td><td><div>None</div></td></tr><tr><td style="font-weight:bold;vertical-align:top;">client</td><td style="vertical-align:top;">:</td><td><div>127.0.0.1</div></td></tr><tr><td style="font-weight:bold;vertical-align:top;">controller</td><td style="vertical-align:top;">:</td><td><div>default</div></td></tr><tr><td style="font-weight:bold;vertical-align:top;">cookies</td><td style="vertical-align:top;">:</td><td><div><table><tr><td style="font-weight:bold;vertical-align:top;">session_id_admin</td><td style="vertical-align:top;">:</td><td><div>127.0.0.1-2f30c24a-63ff-4be1-8aab-0fcb130ca768<table><tr><td style="font-weight:bold;vertical-align:top;">comment</td><td style="vertical-align:top;">:</td><td><div></div></td></tr><tr><td style="font-weight:bold;vertical-align:top;">domain</td><td style="vertical-align:top;">:</td><td><div></div></td></tr><tr><td style="font-weight:bold;vertical-align:top;">expires</td><td style="vertical-align:top;">:</td><td><div></div></td></tr><tr><td style="font-weight:bold;vertical-align:top;">httponly</td><td style="vertical-align:top;">:</td><td><div></div></td></tr><tr><td style="font-weight:bold;vertical-align:top;">max-age</td><td style="vertical-align:top;">:</td><td><div></div></td></tr><tr><td style="font-weight:bold;vertical-align:top;">path</td><td style="vertical-align:top;">:</td><td><div></div></td></tr><tr><td style="font-weight:bold;vertical-align:top;">secure</td><td style="vertical-align:top;">:</td><td><div></div></td></tr><tr><td style="font-weight:bold;vertical-align:top;">version</td><td style="vertical-align:top;">:</td><td><div></div></td></tr></table></div></td></tr><tr><td style="font-weight:bold;vertical-align:top;">session_id_cookmania</td><td style="vertical-align:top;">:</td><td><div>127.0.0.1-684be925-d04e-47fb-ba65-14fb0097bf8c<table><tr><td style="font-weight:bold;vertical-align:top;">comment</td><td style="vertical-align:top;">:</td><td><div></div></td></tr><tr><td style="font-weight:bold;vertical-align:top;">domain</td><td style="vertical-align:top;">:</td><td><div></div></td></tr><tr><td style="font-weight:bold;vertical-align:top;">expires</td><td style="vertical-align:top;">:</td><td><div></div></td></tr><tr><td style="font-weight:bold;vertical-align:top;">httponly</td><td style="vertical-align:top;">:</td><td><div></div></td></tr><tr><td style="font-weight:bold;vertical-align:top;">max-age</td><td style="vertical-align:top;">:</td><td><div></div></td></tr><tr><td style="font-weight:bold;vertical-align:top;">path</td><td style="vertical-align:top;">:</td><td><div></div></td></tr><tr><td style="font-weight:bold;vertical-align:top;">secure</td><td style="vertical-align:top;">:</td><td><div></div></td></tr><tr><td style="font-weight:bold;vertical-align:top;">version</td><td style="vertical-align:top;">:</td><td><div></div></td></tr></table></div></td></tr><tr><td style="font-weight:bold;vertical-align:top;">session_id_test</td><td style="vertical-align:top;">:</td><td><div>127.0.0.1-35a94b98-8ca1-415d-8aae-f1ea5af94181<table><tr><td style="font-weight:bold;vertical-align:top;">comment</td><td style="vertical-align:top;">:</td><td><div></div></td></tr><tr><td style="font-weight:bold;vertical-align:top;">domain</td><td style="vertical-align:top;">:</td><td><div></div></td></tr><tr><td style="font-weight:bold;vertical-align:top;">expires</td><td style="vertical-align:top;">:</td><td><div></div></td></tr><tr><td style="font-weight:bold;vertical-align:top;">httponly</td><td style="vertical-align:top;">:</td><td><div></div></td></tr><tr><td style="font-weight:bold;vertical-align:top;">max-age</td><td style="vertical-align:top;">:</td><td><div></div></td></tr><tr><td style="font-weight:bold;vertical-align:top;">path</td><td style="vertical-align:top;">:</td><td><div></div></td></tr><tr><td style="font-weight:bold;vertical-align:top;">secure</td><td style="vertical-align:top;">:</td><td><div></div></td></tr><tr><td style="font-weight:bold;vertical-align:top;">version</td><td style="vertical-align:top;">:</td><td><div></div></td></tr></table></div></td></tr><tr><td style="font-weight:bold;vertical-align:top;">session_id_welcome</td><td style="vertical-align:top;">:</td><td><div>127.0.0.1-9e042154-a885-4ee5-9b61-00e213b39fd3<table><tr><td style="font-weight:bold;vertical-align:top;">comment</td><td style="vertical-align:top;">:</td><td><div></div></td></tr><tr><td style="font-weight:bold;vertical-align:top;">domain</td><td style="vertical-align:top;">:</td><td><div></div></td></tr><tr><td style="font-weight:bold;vertical-align:top;">expires</td><td style="vertical-align:top;">:</td><td><div></div></td></tr><tr><td style="font-weight:bold;vertical-align:top;">httponly</td><td style="vertical-align:top;">:</td><td><div></div></td></tr><tr><td style="font-weight:bold;vertical-align:top;">max-age</td><td style="vertical-align:top;">:</td><td><div></div></td></tr><tr><td style="font-weight:bold;vertical-align:top;">path</td><td style="vertical-align:top;">:</td><td><div></div></td></tr><tr><td style="font-weight:bold;vertical-align:top;">secure</td><td style="vertical-align:top;">:</td><td><div></div></td></tr><tr><td style="font-weight:bold;vertical-align:top;">version</td><td style="vertical-align:top;">:</td><td><div></div></td></tr></table></div></td></tr></table></div></td></tr><tr><td style="font-weight:bold;vertical-align:top;">env</td><td style="vertical-align:top;">:</td><td><div><table><tr><td style="font-weight:bold;vertical-align:top;">HTTP_ACCEPT</td><td style="vertical-align:top;">:</td><td><div>text/html,application/xhtml+xml,application/xml;q=0.9,*/*;q=0.8</div></td></tr><tr><td style="font-weight:bold;vertical-align:top;">HTTP_ACCEPT_ENCODING</td><td style="vertical-align:top;">:</td><td><div>gzip, deflate</div></td></tr><tr><td style="font-weight:bold;vertical-align:top;">HTTP_ACCEPT_LANGUAGE</td><td style="vertical-align:top;">:</td><td><div>en-US,en;q=0.5</div></td></tr><tr><td style="font-weight:bold;vertical-align:top;">HTTP_CACHE_CONTROL</td><td style="vertical-align:top;">:</td><td><div>max-age=0</div></td></tr><tr><td style="font-weight:bold;vertical-align:top;">HTTP_CONNECTION</td><td style="vertical-align:top;">:</td><td><div>keep-alive</div></td></tr><tr><td style="font-weight:bold;vertical-align:top;">HTTP_COOKIE</td><td style="vertical-align:top;">:</td><td><div>session_id_welcome=127.0.0.1-9e042154-a885-4ee5-9b61-00e213b39fd3; session_id_admin=127.0.0.1-2f30c24a-63ff-4be1-8aab-0fcb130ca768; session_id_cookmania=127.0.0.1-684be925-d04e-47fb-ba65-14fb0097bf8c; session_id_test=127.0.0.1-35a94b98-8ca1-415d-8aae-f1ea5af94181</div></td></tr><tr><td style="font-weight:bold;vertical-align:top;">HTTP_HOST</td><td style="vertical-align:top;">:</td><td><div>127.0.0.1:8000</div></td></tr><tr><td style="font-weight:bold;vertical-align:top;">HTTP_REFERER</td><td style="vertical-align:top;">:</td><td><div>http://127.0.0.1:8000/admin/default/site</div></td></tr><tr><td style="font-weight:bold;vertical-align:top;">HTTP_USER_AGENT</td><td style="vertical-align:top;">:</td><td><div>Mozilla/5.0 (X11; Ubuntu; Linux x86_64; rv:43.0) Gecko/20100101 Firefox/43.0</div></td></tr><tr><td style="font-weight:bold;vertical-align:top;">PATH_INFO</td><td style="vertical-align:top;">:</td><td><div>/cookmania/default/index</div></td></tr><tr><td style="font-weight:bold;vertical-align:top;">QUERY_STRING</td><td style="vertical-align:top;">:</td><td><div></div></td></tr><tr><td style="font-weight:bold;vertical-align:top;">REMOTE_ADDR</td><td style="vertical-align:top;">:</td><td><div>127.0.0.1</div></td></tr><tr><td style="font-weight:bold;vertical-align:top;">REMOTE_PORT</td><td style="vertical-align:top;">:</td><td><div>59380</div></td></tr><tr><td style="font-weight:bold;vertical-align:top;">REQUEST_METHOD</td><td style="vertical-align:top;">:</td><td><div>GET</div></td></tr><tr><td style="font-weight:bold;vertical-align:top;">SCRIPT_NAME</td><td style="vertical-align:top;">:</td><td><div></div></td></tr><tr><td style="font-weight:bold;vertical-align:top;">SERVER_NAME</td><td style="vertical-align:top;">:</td><td><div>kritika-HP-ProBook-450-G0</div></td></tr><tr><td style="font-weight:bold;vertical-align:top;">SERVER_PORT</td><td style="vertical-align:top;">:</td><td><div>8000</div></td></tr><tr><td style="font-weight:bold;vertical-align:top;">SERVER_PROTOCOL</td><td style="vertical-align:top;">:</td><td><div>HTTP/1.1</div></td></tr><tr><td style="font-weight:bold;vertical-align:top;">SERVER_SOFTWARE</td><td style="vertical-align:top;">:</td><td><div>Rocket 1.2.6</div></td></tr><tr><td style="font-weight:bold;vertical-align:top;">app_folders</td><td style="vertical-align:top;">:</td><td><div>set([&#x27;/home/kritika/web2py/applications/cookmania/&#x27;, &#x27;/home/kritika/web2py/applications/welcome/&#x27;, &#x27;/home/kritika/web2py/applications/admin/&#x27;, &#x27;/home/kritika/web2py/applications/test/&#x27;])</div></td></tr><tr><td style="font-weight:bold;vertical-align:top;">applications_parent</td><td style="vertical-align:top;">:</td><td><div>/home/kritika/web2py</div></td></tr><tr><td style="font-weight:bold;vertical-align:top;">cmd_args</td><td style="vertical-align:top;">:</td><td><div><table></table></div></td></tr><tr><td style="font-weight:bold;vertical-align:top;">cmd_options</td><td style="vertical-align:top;">:</td><td><div>&lt;Values at 0x7f0241805908: {&#x27;verbose&#x27;: False, &#x27;ip&#x27;: &#x27;127.0.0.1&#x27;, &#x27;debuglevel&#x27;: 30, &#x27;with_scheduler&#x27;: False, &#x27;ips&#x27;: [&#x27;127.0.1.1&#x27;], &#x27;shutdown_timeout&#x27;: 5, &#x27;taskbar&#x27;: False, &#x27;with_coverage&#x27;: False, &#x27;scheduler_groups&#x27;: None, &#x27;port&#x27;: 8000, &#x27;maxthreads&#x27;: None, &#x27;softcron&#x27;: False, &#x27;server_name&#x27;: &#x27;kritika-HP-ProBook-450-G0&#x27;, &#x27;bpython&#x27;: False, &#x27;nogui&#x27;: True, &#x27;pid_filename&#x27;: &#x27;httpserver.pid&#x27;, &#x27;print_errors&#x27;: False, &#x27;extcron&#x27;: False, &#x27;runcron&#x27;: False, &#x27;run_system_tests&#x27;: False, &#x27;test&#x27;: None, &#x27;folder&#x27;: &#x27;/home/kritika/web2py&#x27;, &#x27;config&#x27;: &#x27;&#x27;, &#x27;minthreads&#x27;: None, &#x27;shell&#x27;: None, &#x27;run&#x27;: &#x27;&#x27;, &#x27;log_filename&#x27;: &#x27;httpserver.log&#x27;, &#x27;profiler_dir&#x27;: None, &#x27;args&#x27;: [&#x27;&#x27;], &#x27;socket_timeout&#x27;: 5, &#x27;ssl_ca_certificate&#x27;: None, &#x27;scheduler&#x27;: None, &#x27;interfaces&#x27;: None, &#x27;ssl_private_key&#x27;: &#x27;&#x27;, &#x27;gae&#x27;: None, &#x27;password&#x27;: &#x27;k&#x27;, &#x27;request_queue_size&#x27;: 5, &#x27;ssl_certificate&#x27;: &#x27;&#x27;, &#x27;cronjob&#x27;: False, &#x27;numthreads&#x27;: None, &#x27;quiet&#x27;: False, &#x27;import_models&#x27;: False, &#x27;timeout&#x27;: 10, &#x27;plain&#x27;: False, &#x27;nobanner&#x27;: False}&gt;</div></td></tr><tr><td style="font-weight:bold;vertical-align:top;">db_sessions</td><td style="vertical-align:top;">:</td><td><div>set([])</div></td></tr><tr><td style="font-weight:bold;vertical-align:top;">debugging</td><td style="vertical-align:top;">:</td><td><div>True</div></td></tr><tr><td style="font-weight:bold;vertical-align:top;">gluon_parent</td><td style="vertical-align:top;">:</td><td><div>/home/kritika/web2py</div></td></tr><tr><td style="font-weight:bold;vertical-align:top;">http_accept</td><td style="vertical-align:top;">:</td><td><div>text/html,application/xhtml+xml,application/xml;q=0.9,*/*;q=0.8</div></td></tr><tr><td style="font-weight:bold;vertical-align:top;">http_accept_encoding</td><td style="vertical-align:top;">:</td><td><div>gzip, deflate</div></td></tr><tr><td style="font-weight:bold;vertical-align:top;">http_accept_language</td><td style="vertical-align:top;">:</td><td><div>en-US,en;q=0.5</div></td></tr><tr><td style="font-weight:bold;vertical-align:top;">http_cache_control</td><td style="vertical-align:top;">:</td><td><div>max-age=0</div></td></tr><tr><td style="font-weight:bold;vertical-align:top;">http_connection</td><td style="vertical-align:top;">:</td><td><div>keep-alive</div></td></tr><tr><td style="font-weight:bold;vertical-align:top;">http_cookie</td><td style="vertical-align:top;">:</td><td><div>session_id_welcome=127.0.0.1-9e042154-a885-4ee5-9b61-00e213b39fd3; session_id_admin=127.0.0.1-2f30c24a-63ff-4be1-8aab-0fcb130ca768; session_id_cookmania=127.0.0.1-684be925-d04e-47fb-ba65-14fb0097bf8c; session_id_test=127.0.0.1-35a94b98-8ca1-415d-8aae-f1ea5af94181</div></td></tr><tr><td style="font-weight:bold;vertical-align:top;">http_host</td><td style="vertical-align:top;">:</td><td><div>127.0.0.1:8000</div></td></tr><tr><td style="font-weight:bold;vertical-align:top;">http_referer</td><td style="vertical-align:top;">:</td><td><div>http://127.0.0.1:8000/admin/default/site</div></td></tr><tr><td style="font-weight:bold;vertical-align:top;">http_user_agent</td><td style="vertical-align:top;">:</td><td><div>Mozilla/5.0 (X11; Ubuntu; Linux x86_64; rv:43.0) Gecko/20100101 Firefox/43.0</div></td></tr><tr><td style="font-weight:bold;vertical-align:top;">is_jython</td><td style="vertical-align:top;">:</td><td><div>False</div></td></tr><tr><td style="font-weight:bold;vertical-align:top;">is_pypy</td><td style="vertical-align:top;">:</td><td><div>False</div></td></tr><tr><td style="font-weight:bold;vertical-align:top;">is_source</td><td style="vertical-align:top;">:</td><td><div>True</div></td></tr><tr><td style="font-weight:bold;vertical-align:top;">local_hosts</td><td style="vertical-align:top;">:</td><td><div><table><tr><td><div>::1</div></td></tr><tr><td><div>127.0.1.1</div></td></tr><tr><td><div>kritika-HP-ProBook-450-G0</div></td></tr><tr><td><div>::ffff:127.0.0.1</div></td></tr><tr><td><div>127.0.0.1</div></td></tr></table></div></td></tr><tr><td style="font-weight:bold;vertical-align:top;">path_info</td><td style="vertical-align:top;">:</td><td><div>/cookmania/default/index</div></td></tr><tr><td style="font-weight:bold;vertical-align:top;">query_string</td><td style="vertical-align:top;">:</td><td><div></div></td></tr><tr><td style="font-weight:bold;vertical-align:top;">remote_addr</td><td style="vertical-align:top;">:</td><td><div>127.0.0.1</div></td></tr><tr><td style="font-weight:bold;vertical-align:top;">remote_port</td><td style="vertical-align:top;">:</td><td><div>59380</div></td></tr><tr><td style="font-weight:bold;vertical-align:top;">request_method</td><td style="vertical-align:top;">:</td><td><div>GET</div></td></tr><tr><td style="font-weight:bold;vertical-align:top;">request_uri</td><td style="vertical-align:top;">:</td><td><div>/cookmania/default/index</div></td></tr><tr><td style="font-weight:bold;vertical-align:top;">script_name</td><td style="vertical-align:top;">:</td><td><div></div></td></tr><tr><td style="font-weight:bold;vertical-align:top;">server_name</td><td style="vertical-align:top;">:</td><td><div>kritika-HP-ProBook-450-G0</div></td></tr><tr><td style="font-weight:bold;vertical-align:top;">server_port</td><td style="vertical-align:top;">:</td><td><div>8000</div></td></tr><tr><td style="font-weight:bold;vertical-align:top;">server_protocol</td><td style="vertical-align:top;">:</td><td><div>HTTP/1.1</div></td></tr><tr><td style="font-weight:bold;vertical-align:top;">server_software</td><td style="vertical-align:top;">:</td><td><div>Rocket 1.2.6</div></td></tr><tr><td style="font-weight:bold;vertical-align:top;">web2py_path</td><td style="vertical-align:top;">:</td><td><div>/home/kritika/web2py</div></td></tr><tr><td style="font-weight:bold;vertical-align:top;">web2py_version</td><td style="vertical-align:top;">:</td><td><div>2.13.4-stable+timestamp.2015.12.26.04.59.39</div></td></tr><tr><td style="font-weight:bold;vertical-align:top;">wsgi.errors</td><td style="vertical-align:top;">:</td><td><div>&lt;open file &#x27;&lt;stderr&gt;&#x27;, mode &#x27;w&#x27; at 0x7f0245c731e0&gt;</div></td></tr><tr><td style="font-weight:bold;vertical-align:top;">wsgi.file_wrapper</td><td style="vertical-align:top;">:</td><td><div>&lt;class wsgiref.util.FileWrapper at 0x7f0241838738&gt;</div></td></tr><tr><td style="font-weight:bold;vertical-align:top;">wsgi.input</td><td style="vertical-align:top;">:</td><td><div>&lt;socket._fileobject object at 0x7f021603e850&gt;</div></td></tr><tr><td style="font-weight:bold;vertical-align:top;">wsgi.multiprocess</td><td style="vertical-align:top;">:</td><td><div>False</div></td></tr><tr><td style="font-weight:bold;vertical-align:top;">wsgi.multithread</td><td style="vertical-align:top;">:</td><td><div>True</div></td></tr><tr><td style="font-weight:bold;vertical-align:top;">wsgi.run_once</td><td style="vertical-align:top;">:</td><td><div>False</div></td></tr><tr><td style="font-weight:bold;vertical-align:top;">wsgi.url_scheme</td><td style="vertical-align:top;">:</td><td><div>http</div></td></tr><tr><td style="font-weight:bold;vertical-align:top;">wsgi.version</td><td style="vertical-align:top;">:</td><td><div><table><tr><td><div>1</div></td></tr><tr><td><div>0</div></td></tr></table></div></td></tr><tr><td style="font-weight:bold;vertical-align:top;">wsgi_errors</td><td style="vertical-align:top;">:</td><td><div>&lt;open file &#x27;&lt;stderr&gt;&#x27;, mode &#x27;w&#x27; at 0x7f0245c731e0&gt;</div></td></tr><tr><td style="font-weight:bold;vertical-align:top;">wsgi_file_wrapper</td><td style="vertical-align:top;">:</td><td><div>&lt;class wsgiref.util.FileWrapper at 0x7f0241838738&gt;</div></td></tr><tr><td style="font-weight:bold;vertical-align:top;">wsgi_input</td><td style="vertical-align:top;">:</td><td><div>&lt;socket._fileobject object at 0x7f021603e850&gt;</div></td></tr><tr><td style="font-weight:bold;vertical-align:top;">wsgi_multiprocess</td><td style="vertical-align:top;">:</td><td><div>False</div></td></tr><tr><td style="font-weight:bold;vertical-align:top;">wsgi_multithread</td><td style="vertical-align:top;">:</td><td><div>True</div></td></tr><tr><td style="font-weight:bold;vertical-align:top;">wsgi_run_once</td><td style="vertical-align:top;">:</td><td><div>False</div></td></tr><tr><td style="font-weight:bold;vertical-align:top;">wsgi_url_scheme</td><td style="vertical-align:top;">:</td><td><div>http</div></td></tr><tr><td style="font-weight:bold;vertical-align:top;">wsgi_version</td><td style="vertical-align:top;">:</td><td><div><table><tr><td><div>1</div></td></tr><tr><td><div>0</div></td></tr></table></div></td></tr></table></div></td></tr><tr><td style="font-weight:bold;vertical-align:top;">extension</td><td style="vertical-align:top;">:</td><td><div>html</div></td></tr><tr><td style="font-weight:bold;vertical-align:top;">folder</td><td style="vertical-align:top;">:</td><td><div>/home/kritika/web2py/applications/cookmania/</div></td></tr><tr><td style="font-weight:bold;vertical-align:top;">function</td><td style="vertical-align:top;">:</td><td><div>index</div></td></tr><tr><td style="font-weight:bold;vertical-align:top;">global_settings</td><td style="vertical-align:top;">:</td><td><div><table><tr><td style="font-weight:bold;vertical-align:top;">app_folders</td><td style="vertical-align:top;">:</td><td><div>set([&#x27;/home/kritika/web2py/applications/cookmania/&#x27;, &#x27;/home/kritika/web2py/applications/welcome/&#x27;, &#x27;/home/kritika/web2py/applications/admin/&#x27;, &#x27;/home/kritika/web2py/applications/test/&#x27;])</div></td></tr><tr><td style="font-weight:bold;vertical-align:top;">applications_parent</td><td style="vertical-align:top;">:</td><td><div>/home/kritika/web2py</div></td></tr><tr><td style="font-weight:bold;vertical-align:top;">cmd_args</td><td style="vertical-align:top;">:</td><td><div><table></table></div></td></tr><tr><td style="font-weight:bold;vertical-align:top;">cmd_options</td><td style="vertical-align:top;">:</td><td><div>&lt;Values at 0x7f0241805908: {&#x27;verbose&#x27;: False, &#x27;ip&#x27;: &#x27;127.0.0.1&#x27;, &#x27;debuglevel&#x27;: 30, &#x27;with_scheduler&#x27;: False, &#x27;ips&#x27;: [&#x27;127.0.1.1&#x27;], &#x27;shutdown_timeout&#x27;: 5, &#x27;taskbar&#x27;: False, &#x27;with_coverage&#x27;: False, &#x27;scheduler_groups&#x27;: None, &#x27;port&#x27;: 8000, &#x27;maxthreads&#x27;: None, &#x27;softcron&#x27;: False, &#x27;server_name&#x27;: &#x27;kritika-HP-ProBook-450-G0&#x27;, &#x27;bpython&#x27;: False, &#x27;nogui&#x27;: True, &#x27;pid_filename&#x27;: &#x27;httpserver.pid&#x27;, &#x27;print_errors&#x27;: False, &#x27;extcron&#x27;: False, &#x27;runcron&#x27;: False, &#x27;run_system_tests&#x27;: False, &#x27;test&#x27;: None, &#x27;folder&#x27;: &#x27;/home/kritika/web2py&#x27;, &#x27;config&#x27;: &#x27;&#x27;, &#x27;minthreads&#x27;: None, &#x27;shell&#x27;: None, &#x27;run&#x27;: &#x27;&#x27;, &#x27;log_filename&#x27;: &#x27;httpserver.log&#x27;, &#x27;profiler_dir&#x27;: None, &#x27;args&#x27;: [&#x27;&#x27;], &#x27;socket_timeout&#x27;: 5, &#x27;ssl_ca_certificate&#x27;: None, &#x27;scheduler&#x27;: None, &#x27;interfaces&#x27;: None, &#x27;ssl_private_key&#x27;: &#x27;&#x27;, &#x27;gae&#x27;: None, &#x27;password&#x27;: &#x27;k&#x27;, &#x27;request_queue_size&#x27;: 5, &#x27;ssl_certificate&#x27;: &#x27;&#x27;, &#x27;cronjob&#x27;: False, &#x27;numthreads&#x27;: None, &#x27;quiet&#x27;: False, &#x27;import_models&#x27;: False, &#x27;timeout&#x27;: 10, &#x27;plain&#x27;: False, &#x27;nobanner&#x27;: False}&gt;</div></td></tr><tr><td style="font-weight:bold;vertical-align:top;">db_sessions</td><td style="vertical-align:top;">:</td><td><div>set([])</div></td></tr><tr><td style="font-weight:bold;vertical-align:top;">debugging</td><td style="vertical-align:top;">:</td><td><div>True</div></td></tr><tr><td style="font-weight:bold;vertical-align:top;">gluon_parent</td><td style="vertical-align:top;">:</td><td><div>/home/kritika/web2py</div></td></tr><tr><td style="font-weight:bold;vertical-align:top;">is_jython</td><td style="vertical-align:top;">:</td><td><div>False</div></td></tr><tr><td style="font-weight:bold;vertical-align:top;">is_pypy</td><td style="vertical-align:top;">:</td><td><div>False</div></td></tr><tr><td style="font-weight:bold;vertical-align:top;">is_source</td><td style="vertical-align:top;">:</td><td><div>True</div></td></tr><tr><td style="font-weight:bold;vertical-align:top;">local_hosts</td><td style="vertical-align:top;">:</td><td><div><table><tr><td><div>::1</div></td></tr><tr><td><div>127.0.1.1</div></td></tr><tr><td><div>kritika-HP-ProBook-450-G0</div></td></tr><tr><td><div>::ffff:127.0.0.1</div></td></tr><tr><td><div>127.0.0.1</div></td></tr></table></div></td></tr><tr><td style="font-weight:bold;vertical-align:top;">web2py_version</td><td style="vertical-align:top;">:</td><td><div>2.13.4-stable+timestamp.2015.12.26.04.59.39</div></td></tr></table></div></td></tr><tr><td style="font-weight:bold;vertical-align:top;">is_https</td><td style="vertical-align:top;">:</td><td><div>False</div></td></tr><tr><td style="font-weight:bold;vertical-align:top;">is_local</td><td style="vertical-align:top;">:</td><td><div>True</div></td></tr><tr><td style="font-weight:bold;vertical-align:top;">is_restful</td><td style="vertical-align:top;">:</td><td><div>False</div></td></tr><tr><td style="font-weight:bold;vertical-align:top;">is_scheduler</td><td style="vertical-align:top;">:</td><td><div>False</div></td></tr><tr><td style="font-weight:bold;vertical-align:top;">is_shell</td><td style="vertical-align:top;">:</td><td><div>False</div></td></tr><tr><td style="font-weight:bold;vertical-align:top;">now</td><td style="vertical-align:top;">:</td><td><div>datetime.datetime(2016, 3, 27, 20, 55, 24, 670498)</div></td></tr><tr><td style="font-weight:bold;vertical-align:top;">raw_args</td><td style="vertical-align:top;">:</td><td><div></div></td></tr><tr><td style="font-weight:bold;vertical-align:top;">raw_extension</td><td style="vertical-align:top;">:</td><td><div>None</div></td></tr><tr><td style="font-weight:bold;vertical-align:top;">url</td><td style="vertical-align:top;">:</td><td><div>/cookmania/default/index</div></td></tr><tr><td style="font-weight:bold;vertical-align:top;">utcnow</td><td style="vertical-align:top;">:</td><td><div>datetime.datetime(2016, 3, 27, 15, 25, 24, 670527)</div></td></tr><tr><td style="font-weight:bold;vertical-align:top;">wsgi</td><td style="vertical-align:top;">:</td><td><div>&lt;gluon.main.LazyWSGI object at 0x7f0215c8cd90&gt;</div></td></tr></table></div>'
tRp58
sS'frames'
p59
(lp60
(dp61
S'file'
p62
S'/home/kritika/web2py/gluon/restricted.py'
p63
sS'dump'
p64
(dp65
S'environment'
p66
S"{'A': <class 'gluon.html.A'>, 'ANY_OF': <class 'gluon.validators.ANY_OF'>, 'ASSIGNJS': <function ASSIGNJS>, 'Auth': <class 'gluon.tools.Auth'>, 'B': <class 'gluon.html.B'>, 'BEAUTIFY': <class 'gluon.html.BEAUTIFY'>, 'BODY': <class 'gluon.html.BODY'>, 'BR': <class 'gluon.html.BR'>, 'BUTTON': <class 'gluon.html.BUTTON'>, 'CAT': <class 'gluon.html.CAT'>, ...}"
p67
sS'ccode'
p68
S'<code object <module> at 0x7f023876c7b0, file "/...2py/applications/cookmania/models/db.py", line 1>'
p69
ssS'lnum'
p70
I227
sS'lines'
p71
(dp72
I224
S'            ccode = code'
p73
sI225
S'        else:'
p74
sI226
S'            ccode = compile2(code, layer)'
p75
sI227
S'        exec ccode in environment'
p76
sI228
S'    except HTTP:'
p77
sI229
S'        raise'
p78
sI230
S'    except RestrictedError:'
p79
sI231
S'        # do not encapsulate (obfuscate) the original RestrictedError'
p80
sI222
S'    try:'
p81
sI223
S'        if isinstance(code, types.CodeType):'
p82
ssS'call'
p83
S'(code="db = DAL(\'sqlite://storage.sqlite\')\\n\\nfrom gluon....mments.id.writable=db.comments.id.readable=False\\n", environment={\'A\': <class \'gluon.html.A\'>, \'ANY_OF\': <class \'gluon.validators.ANY_OF\'>, \'ASSIGNJS\': <function ASSIGNJS>, \'Auth\': <class \'gluon.tools.Auth\'>, \'B\': <class \'gluon.html.B\'>, \'BEAUTIFY\': <class \'gluon.html.BEAUTIFY\'>, \'BODY\': <class \'gluon.html.BODY\'>, \'BR\': <class \'gluon.html.BR\'>, \'BUTTON\': <class \'gluon.html.BUTTON\'>, \'CAT\': <class \'gluon.html.CAT\'>, ...}, layer=\'/home/kritika/web2py/applications/cookmania/models/db.py\')'
p84
sS'func'
p85
S'restricted'
p86
sa(dp87
g62
S'/home/kritika/web2py/applications/cookmania/models/db.py'
p88
sg64
(dp89
S'db.recipe.by'
p90
S'undefined'
p91
sS'db'
p92
S'<DAL uri="sqlite://storage.sqlite">'
p93
sS'builtinFalse'
p94
S'False'
p95
sS'db.recipe'
p96
S'<Table recipe (id,title,body,created_by,created_on)>'
p97
ssg70
I29
sg71
(dp98
I32
S'db.comments.on.writable=db.comments.on.readable=False'
p99
sI33
S'db.comments.id.writable=db.comments.id.readable=False'
p100
sI24
S''
sI25
S"db.recipe.title.requires=IS_NOT_IN_DB(db,'recipe.title')"
p101
sI26
S'db.recipe.body.requires=IS_NOT_EMPTY()'
p102
sI27
S'db.recipe.title.requires=IS_NOT_EMPTY()'
p103
sI28
S'db.comments.body.requires=IS_NOT_EMPTY()'
p104
sI29
S'db.recipe.by.writable=db.recipe.by.readable=False'
p105
sI30
S'db.comments.by.writable=db.comments.by.readable=False'
p106
sI31
S'db.recipe.on.writable=db.recipe.on.readable=False'
p107
ssg83
S'()'
p108
sg85
S'<module>'
p109
sasS'pyver'
p110
S'Python 2.7.10: /usr/bin/python (prefix: /usr)'
p111
sS'session'
p112
g57
(S's\x1a\x00\x00\x00<div><table></table></div>'
tRp113
sS'etype'
p114
S"<type 'exceptions.AttributeError'>"
p115
sS'date'
p116
S'Sun Mar 27 20:55:25 2016'
p117
sS'response'
p118
g57
(S's\xc3\x16\x00\x00<div><table><tr><td style="font-weight:bold;vertical-align:top;">body</td><td style="vertical-align:top;">:</td><td><div>&lt;cStringIO.StringO object at 0x7f02387492d0&gt;</div></td></tr><tr><td style="font-weight:bold;vertical-align:top;">cookies</td><td style="vertical-align:top;">:</td><td><div><table><tr><td style="font-weight:bold;vertical-align:top;">session_id_cookmania</td><td style="vertical-align:top;">:</td><td><div>127.0.0.1-daf47d3d-18fd-4647-a852-48e4b666fd03<table><tr><td style="font-weight:bold;vertical-align:top;">comment</td><td style="vertical-align:top;">:</td><td><div></div></td></tr><tr><td style="font-weight:bold;vertical-align:top;">domain</td><td style="vertical-align:top;">:</td><td><div></div></td></tr><tr><td style="font-weight:bold;vertical-align:top;">expires</td><td style="vertical-align:top;">:</td><td><div></div></td></tr><tr><td style="font-weight:bold;vertical-align:top;">httponly</td><td style="vertical-align:top;">:</td><td><div></div></td></tr><tr><td style="font-weight:bold;vertical-align:top;">max-age</td><td style="vertical-align:top;">:</td><td><div></div></td></tr><tr><td style="font-weight:bold;vertical-align:top;">path</td><td style="vertical-align:top;">:</td><td><div>/</div></td></tr><tr><td style="font-weight:bold;vertical-align:top;">secure</td><td style="vertical-align:top;">:</td><td><div></div></td></tr><tr><td style="font-weight:bold;vertical-align:top;">version</td><td style="vertical-align:top;">:</td><td><div></div></td></tr></table></div></td></tr></table></div></td></tr><tr><td style="font-weight:bold;vertical-align:top;">delimiters</td><td style="vertical-align:top;">:</td><td><div><table><tr><td><div>{{</div></td></tr><tr><td><div>}}</div></td></tr></table></div></td></tr><tr><td style="font-weight:bold;vertical-align:top;">files</td><td style="vertical-align:top;">:</td><td><div><table></table></div></td></tr><tr><td style="font-weight:bold;vertical-align:top;">flash</td><td style="vertical-align:top;">:</td><td><div></div></td></tr><tr><td style="font-weight:bold;vertical-align:top;">form_label_separator</td><td style="vertical-align:top;">:</td><td><div>: </div></td></tr><tr><td style="font-weight:bold;vertical-align:top;">formstyle</td><td style="vertical-align:top;">:</td><td><div>table3cols</div></td></tr><tr><td style="font-weight:bold;vertical-align:top;">generic_patterns</td><td style="vertical-align:top;">:</td><td><div><table><tr><td><div>*</div></td></tr></table></div></td></tr><tr><td style="font-weight:bold;vertical-align:top;">headers</td><td style="vertical-align:top;">:</td><td><div><table><tr><td style="font-weight:bold;vertical-align:top;">X-Powered-By</td><td style="vertical-align:top;">:</td><td><div>web2py</div></td></tr></table></div></td></tr><tr><td style="font-weight:bold;vertical-align:top;">menu</td><td style="vertical-align:top;">:</td><td><div><table></table></div></td></tr><tr><td style="font-weight:bold;vertical-align:top;">meta</td><td style="vertical-align:top;">:</td><td><div><table></table></div></td></tr><tr><td style="font-weight:bold;vertical-align:top;">models_to_run</td><td style="vertical-align:top;">:</td><td><div><table><tr><td><div>^\\w+\\.py$</div></td></tr><tr><td><div>^default/\\w+\\.py$</div></td></tr><tr><td><div>^default/index/\\w+\\.py$</div></td></tr></table></div></td></tr><tr><td style="font-weight:bold;vertical-align:top;">postprocessing</td><td style="vertical-align:top;">:</td><td><div><table></table></div></td></tr><tr><td style="font-weight:bold;vertical-align:top;">session_client</td><td style="vertical-align:top;">:</td><td><div>127.0.0.1</div></td></tr><tr><td style="font-weight:bold;vertical-align:top;">session_cookie_compression_level</td><td style="vertical-align:top;">:</td><td><div>None</div></td></tr><tr><td style="font-weight:bold;vertical-align:top;">session_cookie_expires</td><td style="vertical-align:top;">:</td><td><div>None</div></td></tr><tr><td style="font-weight:bold;vertical-align:top;">session_cookie_key</td><td style="vertical-align:top;">:</td><td><div>None</div></td></tr><tr><td style="font-weight:bold;vertical-align:top;">session_data_name</td><td style="vertical-align:top;">:</td><td><div>session_data_cookmania</div></td></tr><tr><td style="font-weight:bold;vertical-align:top;">session_file</td><td style="vertical-align:top;">:</td><td><div>None</div></td></tr><tr><td style="font-weight:bold;vertical-align:top;">session_filename</td><td style="vertical-align:top;">:</td><td><div>/home/kritika/web2py/applications/cookmania/sessions/127.0.0.1-daf47d3d-18fd-4647-a852-48e4b666fd03</div></td></tr><tr><td style="font-weight:bold;vertical-align:top;">session_hash</td><td style="vertical-align:top;">:</td><td><div>c0762cbf4baf7f9af97c051e7fcb8083</div></td></tr><tr><td style="font-weight:bold;vertical-align:top;">session_id</td><td style="vertical-align:top;">:</td><td><div>127.0.0.1-daf47d3d-18fd-4647-a852-48e4b666fd03</div></td></tr><tr><td style="font-weight:bold;vertical-align:top;">session_id_name</td><td style="vertical-align:top;">:</td><td><div>session_id_cookmania</div></td></tr><tr><td style="font-weight:bold;vertical-align:top;">session_masterapp</td><td style="vertical-align:top;">:</td><td><div>cookmania</div></td></tr><tr><td style="font-weight:bold;vertical-align:top;">session_new</td><td style="vertical-align:top;">:</td><td><div>True</div></td></tr><tr><td style="font-weight:bold;vertical-align:top;">session_storage_type</td><td style="vertical-align:top;">:</td><td><div>file</div></td></tr><tr><td style="font-weight:bold;vertical-align:top;">status</td><td style="vertical-align:top;">:</td><td><div>200</div></td></tr><tr><td style="font-weight:bold;vertical-align:top;">view</td><td style="vertical-align:top;">:</td><td><div>default/index.html</div></td></tr></table></div>'
tRp119
sS'locals'
p120
(dp121
S'Service'
p122
S"<class 'gluon.tools.Service'>"
p123
sS'OBJECT'
p124
S"<class 'gluon.html.OBJECT'>"
p125
sS'SQLDB'
p126
S"<class 'pydal.base.DAL'>"
p127
sg112
S'<Storage {}>'
p128
sS'LINK'
p129
S"<class 'gluon.html.LINK'>"
p130
sS'BR'
p131
S"<class 'gluon.html.BR'>"
p132
sS'local_import'
p133
S'<function <lambda>>'
p134
sS'OPTGROUP'
p135
S"<class 'gluon.html.OPTGROUP'>"
p136
sS'LI'
p137
S"<class 'gluon.html.LI'>"
p138
sS'PRE'
p139
S"<class 'gluon.html.PRE'>"
p140
sS'IS_INT_IN_RANGE'
p141
S"<class 'gluon.validators.IS_INT_IN_RANGE'>"
p142
sS'IS_LOWER'
p143
S"<class 'gluon.validators.IS_LOWER'>"
p144
sS'IS_STRONG'
p145
S"<class 'gluon.validators.IS_STRONG'>"
p146
sS'Recaptcha'
p147
S"<class 'gluon.tools.Recaptcha'>"
p148
sS'cache'
p149
S'<gluon.cache.Cache object>'
p150
sS'IS_IN_DB'
p151
S"<class 'gluon.validators.IS_IN_DB'>"
p152
sS'TAG'
p153
S'<gluon.html.__TAG__ object>'
p154
sS'SQLField'
p155
S"<class 'pydal.objects.Field'>"
p156
sS'BODY'
p157
S"<class 'gluon.html.BODY'>"
p158
sS'IS_DATE_IN_RANGE'
p159
S"<class 'gluon.validators.IS_DATE_IN_RANGE'>"
p160
sS'TH'
p161
S"<class 'gluon.html.TH'>"
p162
sS'URL'
p163
S'<function URL>'
p164
sS'__file__'
p165
S"'/home/kritika/web2py/applications/cookmania/models/db.py'"
p166
sS'db'
p167
S'<DAL uri="sqlite://storage.sqlite">'
p168
sS'auth'
p169
S'<gluon.tools.Auth object>'
p170
sS'P'
S"<class 'gluon.html.P'>"
p171
sS'TFOOT'
p172
S"<class 'gluon.html.TFOOT'>"
p173
sS'XHTML'
p174
S"<class 'gluon.html.XHTML'>"
p175
sS'ON'
p176
S'True'
p177
sS'OL'
p178
S"<class 'gluon.html.OL'>"
p179
sS'TEXTAREA'
p180
S"<class 'gluon.html.TEXTAREA'>"
p181
sS'MENU'
p182
S"<class 'gluon.html.MENU'>"
p183
sS'reverse_geocode'
p184
S'<function reverse_geocode>'
p185
sS'LOAD'
p186
S'<function LOAD>'
p187
sS'CODE'
p188
S"<class 'gluon.html.CODE'>"
p189
sS'HTTP'
p190
S"<class 'gluon.http.HTTP'>"
p191
sS'HR'
p192
S"<class 'gluon.html.HR'>"
p193
sS'IS_DATETIME'
p194
S"<class 'gluon.validators.IS_DATETIME'>"
p195
sS'HEAD'
p196
S"<class 'gluon.html.HEAD'>"
p197
sS'LABEL'
p198
S"<class 'gluon.html.LABEL'>"
p199
sS'CLEANUP'
p200
S"<class 'gluon.validators.CLEANUP'>"
p201
sS'SELECT'
p202
S"<class 'gluon.html.SELECT'>"
p203
sS'CENTER'
p204
S"<class 'gluon.html.CENTER'>"
p205
sS'prettydate'
p206
S'<function prettydate>'
p207
sS'Crud'
p208
S"<class 'gluon.tools.Crud'>"
p209
sS'Auth'
p210
S"<class 'gluon.tools.Auth'>"
p211
sS'__builtins__'
p212
S"{'ArithmeticError': <type 'exceptions.ArithmeticError'>, 'AssertionError': <type 'exceptions.AssertionError'>, 'AttributeError': <type 'exceptions.AttributeError'>, 'BaseException': <type 'exceptions.BaseException'>, 'BufferError': <type 'exceptions.BufferError'>, 'BytesWarning': <type 'exceptions.BytesWarning'>, 'DeprecationWarning': <type 'exceptions.DeprecationWarning'>, 'EOFError': <type 'exceptions.EOFError'>, 'Ellipsis': Ellipsis, 'EnvironmentError': <type 'exceptions.EnvironmentError'>, ...}"
p213
sS'HTML'
p214
S"<class 'gluon.html.HTML'>"
p215
sS'SQLFORM'
p216
S"<class 'gluon.sqlhtml.SQLFORM'>"
p217
sS'EM'
p218
S"<class 'gluon.html.EM'>"
p219
sS'redirect'
p220
S'<function redirect>'
p221
sS'FIELDSET'
p222
S"<class 'gluon.html.FIELDSET'>"
p223
sS'IS_EQUAL_TO'
p224
S"<class 'gluon.validators.IS_EQUAL_TO'>"
p225
sS'embed64'
p226
S'<function embed64>'
p227
sS'IS_LIST_OF'
p228
S"<class 'gluon.validators.IS_LIST_OF'>"
p229
sS'__name__'
p230
S"'__restricted__'"
p231
sS'EMBED'
p232
S"<class 'gluon.html.EMBED'>"
p233
sS'FORM'
p234
S"<class 'gluon.html.FORM'>"
p235
sS'H2'
p236
S"<class 'gluon.html.H2'>"
p237
sS'H3'
p238
S"<class 'gluon.html.H3'>"
p239
sS'BUTTON'
p240
S"<class 'gluon.html.BUTTON'>"
p241
sS'H1'
p242
S"<class 'gluon.html.H1'>"
p243
sS'H6'
p244
S"<class 'gluon.html.H6'>"
p245
sS'H4'
p246
S"<class 'gluon.html.H4'>"
p247
sS'H5'
p248
S"<class 'gluon.html.H5'>"
p249
sS'UL'
p250
S"<class 'gluon.html.UL'>"
p251
sS'IS_UPPER'
p252
S"<class 'gluon.validators.IS_UPPER'>"
p253
sS'xmlescape'
p254
S'<function xmlescape>'
p255
sS'IS_TIME'
p256
S"<class 'gluon.validators.IS_TIME'>"
p257
sS'OPTION'
p258
S"<class 'gluon.html.OPTION'>"
p259
sS'TITLE'
p260
S"<class 'gluon.html.TITLE'>"
p261
sS'CRYPT'
p262
S"<class 'gluon.validators.CRYPT'>"
p263
sS'IS_EMPTY_OR'
p264
S"<class 'gluon.validators.IS_EMPTY_OR'>"
p265
sS'MARKMIN'
p266
S"<class 'gluon.html.MARKMIN'>"
p267
sS'Recaptcha2'
p268
S"<class 'gluon.tools.Recaptcha2'>"
p269
sS'INPUT'
p270
S"<class 'gluon.html.INPUT'>"
p271
sS'STRONG'
p272
S"<class 'gluon.html.STRONG'>"
p273
sS'COL'
p274
S"<class 'gluon.html.COL'>"
p275
sS'SCRIPT'
p276
S"<class 'gluon.html.SCRIPT'>"
p277
sS'geocode'
p278
S'<function geocode>'
p279
sS'TABLE'
p280
S"<class 'gluon.html.TABLE'>"
p281
sS'IS_IPV4'
p282
S"<class 'gluon.validators.IS_IPV4'>"
p283
sS'IS_LENGTH'
p284
S"<class 'gluon.validators.IS_LENGTH'>"
p285
sS'IS_IPV6'
p286
S"<class 'gluon.validators.IS_IPV6'>"
p287
sS'XML'
p288
S"<class 'gluon.html.XML'>"
p289
sS'ANY_OF'
p290
S"<class 'gluon.validators.ANY_OF'>"
p291
sS'B'
S"<class 'gluon.html.B'>"
p292
sS'IMG'
p293
S"<class 'gluon.html.IMG'>"
p294
sS'SQLTABLE'
p295
S"<class 'gluon.sqlhtml.SQLTABLE'>"
p296
sS'IS_MATCH'
p297
S"<class 'gluon.validators.IS_MATCH'>"
p298
sS'IS_ALPHANUMERIC'
p299
S"<class 'gluon.validators.IS_ALPHANUMERIC'>"
p300
sS'SPAN'
p301
S"<class 'gluon.html.SPAN'>"
p302
sS'IS_JSON'
p303
S"<class 'gluon.validators.IS_JSON'>"
p304
sS'IS_IPADDRESS'
p305
S"<class 'gluon.validators.IS_IPADDRESS'>"
p306
sS'IS_SLUG'
p307
S"<class 'gluon.validators.IS_SLUG'>"
p308
sS'BEAUTIFY'
p309
S"<class 'gluon.html.BEAUTIFY'>"
p310
sS'META'
p311
S"<class 'gluon.html.META'>"
p312
sS'fetch'
p313
S'<function fetch>'
p314
sS'IS_DATE'
p315
S"<class 'gluon.validators.IS_DATE'>"
p316
sS'IS_EMAIL'
p317
S"<class 'gluon.validators.IS_EMAIL'>"
p318
sS'IS_NOT_EMPTY'
p319
S"<class 'gluon.validators.IS_NOT_EMPTY'>"
p320
sS'IS_FLOAT_IN_RANGE'
p321
S"<class 'gluon.validators.IS_FLOAT_IN_RANGE'>"
p322
sS'TBODY'
p323
S"<class 'gluon.html.TBODY'>"
p324
sS'CAT'
p325
S"<class 'gluon.html.CAT'>"
p326
sS'Field'
p327
S"<class 'pydal.objects.Field'>"
p328
sS'IS_LIST_OF_EMAILS'
p329
S"<class 'gluon.validators.IS_LIST_OF_EMAILS'>"
p330
sS'Mail'
p331
S"<class 'gluon.tools.Mail'>"
p332
sS'DIV'
p333
S"<class 'gluon.html.DIV'>"
p334
sS'LEGEND'
p335
S"<class 'gluon.html.LEGEND'>"
p336
sS'COLGROUP'
p337
S"<class 'gluon.html.COLGROUP'>"
p338
sS'DAL'
p339
S"<class 'pydal.base.DAL'>"
p340
sS'ASSIGNJS'
p341
S'<function ASSIGNJS>'
p342
sS'TR'
p343
S"<class 'gluon.html.TR'>"
p344
sS'__package__'
p345
S'None'
p346
sS'IFRAME'
p347
S"<class 'gluon.html.IFRAME'>"
p348
sS'TD'
p349
S"<class 'gluon.html.TD'>"
p350
sS'PluginManager'
p351
S"<class 'gluon.tools.PluginManager'>"
p352
sS'IS_URL'
p353
S"<class 'gluon.validators.IS_URL'>"
p354
sS'A'
S"<class 'gluon.html.A'>"
p355
sS'STYLE'
p356
S"<class 'gluon.html.STYLE'>"
p357
sS'IS_DATETIME_IN_RANGE'
p358
S"<class 'gluon.validators.IS_DATETIME_IN_RANGE'>"
p359
sS'IS_IMAGE'
p360
S"<class 'gluon.validators.IS_IMAGE'>"
p361
sS'I'
S"<class 'gluon.html.I'>"
p362
sS'crud'
p363
S'<gluon.tools.Crud object>'
p364
sS'IS_NOT_IN_DB'
p365
S"<class 'gluon.validators.IS_NOT_IN_DB'>"
p366
sg118
S"<Storage {'body': <cStringIO.StringO object at 0...t 0x7f0238760f50>, 'view': 'default/index.html'}>"
p367
sS'THEAD'
p368
S"<class 'gluon.html.THEAD'>"
p369
sS'Wiki'
p370
S"<class 'gluon.tools.Wiki'>"
p371
sS'IS_NULL_OR'
p372
S"<class 'gluon.validators.IS_EMPTY_OR'>"
p373
sg56
S"<Storage {'_vars': None, 'function': 'index', 'c... '/home/kritika/web2py/applications/cookmania/'}>"
p374
sS'IS_EXPR'
p375
S"<class 'gluon.validators.IS_EXPR'>"
p376
sS'IS_IN_SET'
p377
S"<class 'gluon.validators.IS_IN_SET'>"
p378
sS'IS_UPLOAD_FILENAME'
p379
S"<class 'gluon.validators.IS_UPLOAD_FILENAME'>"
p380
sS'IS_DECIMAL_IN_RANGE'
p381
S"<class 'gluon.validators.IS_DECIMAL_IN_RANGE'>"
p382
sS'TT'
p383
S"<class 'gluon.html.TT'>"
p384
sS'T'
S'<gluon.languages.translator object>'
p385
sssS'traceback'
p386
S'Traceback (most recent call last):\n  File "/home/kritika/web2py/gluon/restricted.py", line 227, in restricted\n    exec ccode in environment\n  File "/home/kritika/web2py/applications/cookmania/models/db.py", line 29, in <module>\n    db.recipe.by.writable=db.recipe.by.readable=False\nAttributeError: \'Table\' object has no attribute \'by\'\n'
p387
s.