(dp1
S'output'
p2
S"<type 'exceptions.Exception'> Server address not specified"
p3
sS'layer'
p4
S'/home/kritika/web2py/applications/cookmania/controllers/default.py'
p5
sS'code'
p6
S'def user():\n    return dict(form=auth())\n\ndef index():\n    pages=db().select(db.recipe.id,db.recipe.title,orderby=db.recipe.id)\n    return dict(pages=pages)\n\n@auth.requires_login()\ndef create():\n    form = SQLFORM(db.recipe).process(next=URL(\'index\'))\n    return dict(form=form)\n\ndef show():\n    this_page = db.recipe(request.args(0,cast=int)) or redirect(URL(\'index\'))\n    db.comments.recipe_id.default=this_page.id\n    form=SQLFORM(db.comments).process() if auth.user else "login"\n    pagecomments = db(db.comments.recipe_id==this_page.id).select()\n    images= db(db.image.id==this_page.id).select(db.image.file)\n    l=db(db.likes.recipe_id==this_page.id).select()\n    likes=str(len(l))\n    return dict(page=this_page, comments=pagecomments, form=form,images=images,likes=likes)\n\n@auth.requires_login()\ndef images():\n    r=db.recipe(request.args(0,cast=int)) or redirect(URL(\'create\'))\n    db.image.id.default=r.id\n    form=SQLFORM(db.image).process() if auth.user else login\n    return dict(form=form)\n\n@auth.requires_login()\ndef edit():\n    this_page=db.recipe(request.args(0,cast=int)) or redirect(URL(\'index\'))\n    if not this_page.created_by==auth.user_id :\n        response.flash="You cant edit this"\n        redirect(URL(\'show\',args=request.args))\n    form=SQLFORM(db.recipe,this_page).process(next=URL(\'show\',args=request.args))\n    return dict(form=form)\n\n@auth.requires_login()\ndef mypages():\n    r=db(db.recipe.created_by==auth.user_id).select()\n    return dict (recipes=r)\n\n@auth.requires_login()\ndef add_like():\n\n    item = db.recipe[request.vars.id]\n    ret = db.likes.validate_and_insert(username=auth.user.id, recipe_id = item.id)\n\n    if ret.errors:\n\n        already_liked = (db.likes.username==auth.user.id) & (db.likes.recipe_id==item.id)\n        db(already_liked).delete()\n    likes=db(db.likes.recipe_id==item.id).select()\n    return str(len(likes))\n\nresponse._vars=response._caller(user)\n'
p7
sS'snapshot'
p8
(dp9
sS'traceback'
p10
S'Traceback (most recent call last):\n  File "/home/kritika/web2py/gluon/restricted.py", line 227, in restricted\n    exec ccode in environment\n  File "/home/kritika/web2py/applications/cookmania/controllers/default.py", line 57, in <module>\n  File "/home/kritika/web2py/gluon/globals.py", line 412, in <lambda>\n    self._caller = lambda f: f()\n  File "/home/kritika/web2py/applications/cookmania/controllers/default.py", line 2, in user\n    return dict(form=auth())\n  File "/home/kritika/web2py/gluon/tools.py", line 1923, in __call__\n    return getattr(self, args[0])()\n  File "/home/kritika/web2py/gluon/tools.py", line 3870, in request_reset_password\n    if self.email_reset_password(user):\n  File "/home/kritika/web2py/gluon/tools.py", line 3894, in email_reset_password\n    message=self.messages.reset_password % d):\n  File "/home/kritika/web2py/gluon/tools.py", line 441, in send\n    raise Exception(\'Server address not specified\')\nException: Server address not specified\n'
p11
s.